; Function Attrs: nounwind uwtable
define void @neato_init_node(ptr noundef %0) local_unnamed_addr #0 {
  %2 = tail call ptr @agbindrec(ptr noundef %0, ptr noundef nonnull @.str, i32 noundef 472, i32 noundef 1) #22
  tail call void @common_init_node(ptr noundef %0) #22
  %3 = tail call ptr @agraphof(ptr noundef %0) #22
  %4 = getelementptr inbounds nuw i8, ptr %3, i64 16
  %5 = load ptr, ptr %4, align 8, !tbaa !3
  %6 = getelementptr inbounds nuw i8, ptr %5, i64 232
  %7 = load i16, ptr %6, align 8, !tbaa !12
  %8 = zext i16 %7 to i64
  %.not.i = icmp eq i16 %7, 0
  br i1 %.not.i, label %.thread.i, label %10

.thread.i:                                        ; preds = %1
  %9 = tail call noalias ptr @calloc(i64 noundef 0, i64 noundef 8) #23
  br label %gv_calloc.exit

10:                                               ; preds = %1
  %11 = tail call noalias ptr @calloc(i64 noundef %8, i64 noundef 8) #23
  %12 = icmp eq ptr %11, null
  br i1 %12, label %13, label %gv_calloc.exit

13:                                               ; preds = %10
  %14 = load ptr, ptr @stderr, align 8, !tbaa !32
  %15 = shl nuw nsw i64 %8, 3
  %16 = tail call i32 (ptr, ptr, ...) @fprintf(ptr noundef %14, ptr noundef nonnull @.str.21, i64 noundef %15) #24
  tail call fastcc void @graphviz_exit() #25
  unreachable

gv_calloc.exit:                                   ; preds = %.thread.i, %10
  %17 = phi ptr [ %9, %.thread.i ], [ %11, %10 ]
  %18 = getelementptr inbounds nuw i8, ptr %0, i64 16
  %19 = load ptr, ptr %18, align 8, !tbaa !3
  %20 = getelementptr inbounds nuw i8, ptr %19, i64 176
  store ptr %17, ptr %20, align 8, !tbaa !34
  %21 = tail call ptr @agraphof(ptr noundef %0) #22
  %22 = getelementptr inbounds nuw i8, ptr %21, i64 16
  %23 = load ptr, ptr %22, align 8, !tbaa !3
  %24 = getelementptr inbounds nuw i8, ptr %23, i64 132
  %25 = load i32, ptr %24, align 4, !tbaa !41
  %26 = and i32 %25, 1
  %27 = icmp ne i32 %26, 0
  tail call void @gv_nodesize(ptr noundef %0, i1 noundef zeroext %27) #22
  ret void
}